target datalayout = "e-m:e-p270:32:32-p271:32:32-p272:64:64-i64:64-i128:128-f80:128-n8:16:32:64-S128"
target triple = "x86_64-pc-linux-gnu"

%struct.AFM_StreamRec_ = type { ptr, ptr, ptr, i32 }
%struct.AFM_ParserRec_ = type { ptr, ptr, ptr, ptr, ptr }
%struct.AFM_ValueRec_ = type { i32, %union.anon }
%union.anon = type { ptr }

@.str.75 = private unnamed_addr constant [5 x i8] c"true\00", align 1

; Function Attrs: nounwind uwtable
define internal ptr @afm_stream_read_string(ptr noundef %0) #0 {
  %2 = alloca ptr, align 8
  %3 = alloca ptr, align 8
  %4 = alloca ptr, align 8
  %5 = alloca i32, align 4
  store ptr %0, ptr %3, align 8
  %6 = load ptr, ptr %3, align 8
  %7 = call i32 @afm_stream_skip_spaces(ptr noundef %6)
  %8 = load ptr, ptr %3, align 8
  %9 = getelementptr inbounds %struct.AFM_StreamRec_, ptr %8, i32 0, i32 3
  %10 = load i32, ptr %9, align 8
  %11 = icmp sge i32 %10, 2
  br i1 %11, label %12, label %13

12:                                               ; preds = %1
  store ptr null, ptr %2, align 8
  br label %57

13:                                               ; preds = %1
  %14 = load ptr, ptr %3, align 8
  %15 = getelementptr inbounds %struct.AFM_StreamRec_, ptr %14, i32 0, i32 0
  %16 = load ptr, ptr %15, align 8
  %17 = getelementptr inbounds i8, ptr %16, i64 -1
  store ptr %17, ptr %4, align 8
  br label %18

18:                                               ; preds = %54, %13
  %19 = load ptr, ptr %3, align 8
  %20 = getelementptr inbounds %struct.AFM_StreamRec_, ptr %19, i32 0, i32 0
  %21 = load ptr, ptr %20, align 8
  %22 = load ptr, ptr %3, align 8
  %23 = getelementptr inbounds %struct.AFM_StreamRec_, ptr %22, i32 0, i32 2
  %24 = load ptr, ptr %23, align 8
  %25 = icmp ult ptr %21, %24
  br i1 %25, label %26, label %33

26:                                               ; preds = %18
  %27 = load ptr, ptr %3, align 8
  %28 = getelementptr inbounds %struct.AFM_StreamRec_, ptr %27, i32 0, i32 0
  %29 = load ptr, ptr %28, align 8
  %30 = getelementptr inbounds i8, ptr %29, i32 1
  store ptr %30, ptr %28, align 8
  %31 = load i8, ptr %29, align 1
  %32 = zext i8 %31 to i32
  br label %34

33:                                               ; preds = %18
  br label %34

34:                                               ; preds = %33, %26
  %35 = phi i32 [ %32, %26 ], [ -1, %33 ]
  store i32 %35, ptr %5, align 4
  %36 = load i32, ptr %5, align 4
  %37 = icmp eq i32 %36, 13
  br i1 %37, label %41, label %38

38:                                               ; preds = %34
  %39 = load i32, ptr %5, align 4
  %40 = icmp eq i32 %39, 10
  br i1 %40, label %41, label %44

41:                                               ; preds = %38, %34
  %42 = load ptr, ptr %3, align 8
  %43 = getelementptr inbounds %struct.AFM_StreamRec_, ptr %42, i32 0, i32 3
  store i32 2, ptr %43, align 8
  br label %55

44:                                               ; preds = %38
  %45 = load i32, ptr %5, align 4
  %46 = icmp eq i32 %45, -1
  br i1 %46, label %50, label %47

47:                                               ; preds = %44
  %48 = load i32, ptr %5, align 4
  %49 = icmp eq i32 %48, 26
  br i1 %49, label %50, label %53

50:                                               ; preds = %47, %44
  %51 = load ptr, ptr %3, align 8
  %52 = getelementptr inbounds %struct.AFM_StreamRec_, ptr %51, i32 0, i32 3
  store i32 3, ptr %52, align 8
  br label %55

53:                                               ; preds = %47
  br label %54

54:                                               ; preds = %53
  br label %18

55:                                               ; preds = %50, %41
  %56 = load ptr, ptr %4, align 8
  store ptr %56, ptr %2, align 8
  br label %57

57:                                               ; preds = %55, %12
  %58 = load ptr, ptr %2, align 8
  ret ptr %58
}

; Function Attrs: nounwind uwtable
define internal i32 @afm_parser_read_vals(ptr noundef %0, ptr noundef %1, i32 noundef %2) #0 {
  %4 = alloca i32, align 4
  %5 = alloca ptr, align 8
  %6 = alloca ptr, align 8
  %7 = alloca i32, align 4
  %8 = alloca ptr, align 8
  %9 = alloca ptr, align 8
  %10 = alloca i32, align 4
  %11 = alloca i64, align 8
  %12 = alloca ptr, align 8
  %13 = alloca ptr, align 8
  %14 = alloca i32, align 4
  store ptr %0, ptr %5, align 8
  store ptr %1, ptr %6, align 8
  store i32 %2, ptr %7, align 4
  %15 = load ptr, ptr %5, align 8
  %16 = getelementptr inbounds %struct.AFM_ParserRec_, ptr %15, i32 0, i32 1
  %17 = load ptr, ptr %16, align 8
  store ptr %17, ptr %8, align 8
  %18 = load i32, ptr %7, align 4
  %19 = icmp sgt i32 %18, 5
  br i1 %19, label %20, label %21

20:                                               ; preds = %3
  store i32 0, ptr %4, align 4
  br label %139

21:                                               ; preds = %3
  store i32 0, ptr %10, align 4
  br label %22

22:                                               ; preds = %134, %21
  %23 = load i32, ptr %10, align 4
  %24 = load i32, ptr %7, align 4
  %25 = icmp slt i32 %23, %24
  br i1 %25, label %26, label %137

26:                                               ; preds = %22
  %27 = load ptr, ptr %6, align 8
  %28 = load i32, ptr %10, align 4
  %29 = sext i32 %28 to i64
  %30 = getelementptr inbounds %struct.AFM_ValueRec_, ptr %27, i64 %29
  store ptr %30, ptr %12, align 8
  %31 = load ptr, ptr %12, align 8
  %32 = getelementptr inbounds %struct.AFM_ValueRec_, ptr %31, i32 0, i32 0
  %33 = load i32, ptr %32, align 8
  %34 = icmp eq i32 %33, 0
  br i1 %34, label %35, label %38

35:                                               ; preds = %26
  %36 = load ptr, ptr %8, align 8
  %37 = call ptr @afm_stream_read_string(ptr noundef %36)
  store ptr %37, ptr %9, align 8
  br label %41

38:                                               ; preds = %26
  %39 = load ptr, ptr %8, align 8
  %40 = call ptr @afm_stream_read_one(ptr noundef %39)
  store ptr %40, ptr %9, align 8
  br label %41

41:                                               ; preds = %38, %35
  %42 = load ptr, ptr %9, align 8
  %43 = icmp ne ptr %42, null
  br i1 %43, label %45, label %44

44:                                               ; preds = %41
  br label %137

45:                                               ; preds = %41
  %46 = load ptr, ptr %8, align 8
  %47 = getelementptr inbounds %struct.AFM_StreamRec_, ptr %46, i32 0, i32 0
  %48 = load ptr, ptr %47, align 8
  %49 = load ptr, ptr %9, align 8
  %50 = ptrtoint ptr %48 to i64
  %51 = ptrtoint ptr %49 to i64
  %52 = sub i64 %50, %51
  %53 = sub nsw i64 %52, 1
  store i64 %53, ptr %11, align 8
  %54 = load ptr, ptr %12, align 8
  %55 = getelementptr inbounds %struct.AFM_ValueRec_, ptr %54, i32 0, i32 0
  %56 = load i32, ptr %55, align 8
  switch i32 %56, label %133 [
    i32 0, label %57
    i32 1, label %57
    i32 2, label %81
    i32 3, label %88
    i32 4, label %96
    i32 5, label %112
  ]

57:                                               ; preds = %45, %45
  %58 = load ptr, ptr %5, align 8
  %59 = getelementptr inbounds %struct.AFM_ParserRec_, ptr %58, i32 0, i32 0
  %60 = load ptr, ptr %59, align 8
  store ptr %60, ptr %13, align 8
  %61 = load ptr, ptr %13, align 8
  %62 = load i64, ptr %11, align 8
  %63 = add i64 %62, 1
  %64 = call ptr @ft_mem_qalloc(ptr noundef %61, i64 noundef %63, ptr noundef %14)
  %65 = load ptr, ptr %12, align 8
  %66 = getelementptr inbounds %struct.AFM_ValueRec_, ptr %65, i32 0, i32 1
  store ptr %64, ptr %66, align 8
  %67 = load i32, ptr %14, align 4
  %68 = icmp ne i32 %67, 0
  br i1 %68, label %80, label %69

69:                                               ; preds = %57
  %70 = load ptr, ptr %12, align 8
  %71 = getelementptr inbounds %struct.AFM_ValueRec_, ptr %70, i32 0, i32 1
  %72 = load ptr, ptr %71, align 8
  %73 = load ptr, ptr %9, align 8
  %74 = load i64, ptr %11, align 8
  call void @llvm.memcpy.p0.p0.i64(ptr align 1 %72, ptr align 1 %73, i64 %74, i1 false)
  %75 = load ptr, ptr %12, align 8
  %76 = getelementptr inbounds %struct.AFM_ValueRec_, ptr %75, i32 0, i32 1
  %77 = load ptr, ptr %76, align 8
  %78 = load i64, ptr %11, align 8
  %79 = getelementptr inbounds i8, ptr %77, i64 %78
  store i8 0, ptr %79, align 1
  br label %80

80:                                               ; preds = %69, %57
  br label %133

81:                                               ; preds = %45
  %82 = load ptr, ptr %9, align 8
  %83 = load i64, ptr %11, align 8
  %84 = getelementptr inbounds i8, ptr %82, i64 %83
  %85 = call i64 @PS_Conv_ToFixed(ptr noundef %9, ptr noundef %84, i64 noundef 0)
  %86 = load ptr, ptr %12, align 8
  %87 = getelementptr inbounds %struct.AFM_ValueRec_, ptr %86, i32 0, i32 1
  store i64 %85, ptr %87, align 8
  br label %133

88:                                               ; preds = %45
  %89 = load ptr, ptr %9, align 8
  %90 = load i64, ptr %11, align 8
  %91 = getelementptr inbounds i8, ptr %89, i64 %90
  %92 = call i64 @PS_Conv_ToInt(ptr noundef %9, ptr noundef %91)
  %93 = trunc i64 %92 to i32
  %94 = load ptr, ptr %12, align 8
  %95 = getelementptr inbounds %struct.AFM_ValueRec_, ptr %94, i32 0, i32 1
  store i32 %93, ptr %95, align 8
  br label %133

96:                                               ; preds = %45
  %97 = load i64, ptr %11, align 8
  %98 = icmp eq i64 %97, 4
  br i1 %98, label %99, label %104

99:                                               ; preds = %96
  %100 = load ptr, ptr %9, align 8
  %101 = call i32 @strncmp(ptr noundef %100, ptr noundef @.str.75, i64 noundef 4) #6
  %102 = icmp ne i32 %101, 0
  %103 = xor i1 %102, true
  br label %104

104:                                              ; preds = %99, %96
  %105 = phi i1 [ false, %96 ], [ %103, %99 ]
  %106 = zext i1 %105 to i32
  %107 = icmp ne i32 %106, 0
  %108 = zext i1 %107 to i32
  %109 = trunc i32 %108 to i8
  %110 = load ptr, ptr %12, align 8
  %111 = getelementptr inbounds %struct.AFM_ValueRec_, ptr %110, i32 0, i32 1
  store i8 %109, ptr %111, align 8
  br label %133

112:                                              ; preds = %45
  %113 = load ptr, ptr %5, align 8
  %114 = getelementptr inbounds %struct.AFM_ParserRec_, ptr %113, i32 0, i32 3
  %115 = load ptr, ptr %114, align 8
  %116 = icmp ne ptr %115, null
  br i1 %116, label %117, label %129

117:                                              ; preds = %112
  %118 = load ptr, ptr %5, align 8
  %119 = getelementptr inbounds %struct.AFM_ParserRec_, ptr %118, i32 0, i32 3
  %120 = load ptr, ptr %119, align 8
  %121 = load ptr, ptr %9, align 8
  %122 = load i64, ptr %11, align 8
  %123 = load ptr, ptr %5, align 8
  %124 = getelementptr inbounds %struct.AFM_ParserRec_, ptr %123, i32 0, i32 4
  %125 = load ptr, ptr %124, align 8
  %126 = call i32 %120(ptr noundef %121, i64 noundef %122, ptr noundef %125)
  %127 = load ptr, ptr %12, align 8
  %128 = getelementptr inbounds %struct.AFM_ValueRec_, ptr %127, i32 0, i32 1
  store i32 %126, ptr %128, align 8
  br label %132

129:                                              ; preds = %112
  %130 = load ptr, ptr %12, align 8
  %131 = getelementptr inbounds %struct.AFM_ValueRec_, ptr %130, i32 0, i32 1
  store i32 0, ptr %131, align 8
  br label %132

132:                                              ; preds = %129, %117
  br label %133

133:                                              ; preds = %132, %104, %88, %81, %80, %45
  br label %134

134:                                              ; preds = %133
  %135 = load i32, ptr %10, align 4
  %136 = add nsw i32 %135, 1
  store i32 %136, ptr %10, align 4
  br label %22, !llvm.loop !21

137:                                              ; preds = %44, %22
  %138 = load i32, ptr %10, align 4
  store i32 %138, ptr %4, align 4
  br label %139

139:                                              ; preds = %137, %20
  %140 = load i32, ptr %4, align 4
  ret i32 %140
}