; Function Attrs: nounwind uwtable
define internal fastcc i32 @afm_parser_read_vals(ptr noundef readonly captures(none) %0, ptr noundef nonnull captures(none) %1, i32 noundef range(i32 1, 6) %2) unnamed_addr #0 {
  %4 = alloca ptr, align 8
  %5 = alloca i32, align 4
  %6 = getelementptr inbounds nuw i8, ptr %0, i64 8
  %7 = load ptr, ptr %6, align 8
  %8 = getelementptr inbounds nuw i8, ptr %7, i64 24
  %9 = getelementptr inbounds nuw i8, ptr %7, i64 16
  %10 = getelementptr inbounds nuw i8, ptr %0, i64 24
  %11 = getelementptr inbounds nuw i8, ptr %0, i64 32
  %wide.trip.count = zext nneg i32 %2 to i64
  br label %12

12:                                               ; preds = %3, %72
  %indvars.iv = phi i64 [ 0, %3 ], [ %indvars.iv.next, %72 ]
  %13 = getelementptr inbounds nuw %struct.AFM_ValueRec_, ptr %1, i64 %indvars.iv
  %14 = load i32, ptr %13, align 8
  %15 = icmp eq i32 %14, 0
  br i1 %15, label %16, label %afm_stream_read_string.exit

16:                                               ; preds = %12
  call fastcc void @afm_stream_skip_spaces(ptr noundef %7)
  %17 = load i32, ptr %8, align 8
  %18 = icmp sgt i32 %17, 1
  br i1 %18, label %afm_stream_read_string.exit.thread, label %20

afm_stream_read_string.exit.thread:               ; preds = %16
  %19 = trunc nuw nsw i64 %indvars.iv to i32
  br label %.loopexit

20:                                               ; preds = %16
  %21 = load ptr, ptr %7, align 8
  %22 = getelementptr inbounds i8, ptr %21, i64 -1
  %23 = load ptr, ptr %9, align 8
  br label %24

24:                                               ; preds = %27, %20
  %25 = phi ptr [ %28, %27 ], [ %21, %20 ]
  %26 = icmp ult ptr %25, %23
  br i1 %26, label %27, label %afm_stream_read_string.exit.thread42.loopexit

27:                                               ; preds = %24
  %28 = getelementptr inbounds nuw i8, ptr %25, i64 1
  store ptr %28, ptr %7, align 8
  %29 = load i8, ptr %25, align 1
  switch i8 %29, label %24 [
    i8 13, label %afm_stream_read_string.exit.thread42
    i8 10, label %afm_stream_read_string.exit.thread42
    i8 26, label %afm_stream_read_string.exit.thread42.loopexit
  ]

afm_stream_read_string.exit.thread42.loopexit:    ; preds = %27, %24
  %.ph = phi ptr [ %28, %27 ], [ %25, %24 ]
  br label %afm_stream_read_string.exit.thread42

afm_stream_read_string.exit.thread42:             ; preds = %27, %27, %afm_stream_read_string.exit.thread42.loopexit
  %30 = phi ptr [ %.ph, %afm_stream_read_string.exit.thread42.loopexit ], [ %28, %27 ], [ %28, %27 ]
  %storemerge.i = phi i32 [ 3, %afm_stream_read_string.exit.thread42.loopexit ], [ 2, %27 ], [ 2, %27 ]
  store i32 %storemerge.i, ptr %8, align 8
  store ptr %22, ptr %4, align 8
  br label %32

afm_stream_read_string.exit:                      ; preds = %12
  %31 = call fastcc ptr @afm_stream_read_one(ptr noundef %7)
  store ptr %31, ptr %4, align 8
  %.not = icmp eq ptr %31, null
  br i1 %.not, label %.loopexit.loopexit.split.loop.exit, label %afm_stream_read_string.exit._crit_edge

afm_stream_read_string.exit._crit_edge:           ; preds = %afm_stream_read_string.exit
  %.pre = load ptr, ptr %7, align 8
  br label %32

32:                                               ; preds = %afm_stream_read_string.exit._crit_edge, %afm_stream_read_string.exit.thread42
  %33 = phi ptr [ %30, %afm_stream_read_string.exit.thread42 ], [ %.pre, %afm_stream_read_string.exit._crit_edge ]
  %storemerge45 = phi ptr [ %22, %afm_stream_read_string.exit.thread42 ], [ %31, %afm_stream_read_string.exit._crit_edge ]
  %34 = ptrtoint ptr %33 to i64
  %35 = ptrtoint ptr %storemerge45 to i64
  %36 = sub i64 %34, %35
  %37 = add nsw i64 %36, -1
  %38 = load i32, ptr %13, align 8
  switch i32 %38, label %72 [
    i32 0, label %39
    i32 1, label %39
    i32 2, label %47
    i32 3, label %51
    i32 4, label %56
    i32 5, label %64
  ]

39:                                               ; preds = %32, %32
  %40 = load ptr, ptr %0, align 8
  %41 = call ptr @ft_mem_qalloc(ptr noundef %40, i64 noundef %36, ptr noundef nonnull %5) #20
  %42 = getelementptr inbounds nuw i8, ptr %13, i64 8
  store ptr %41, ptr %42, align 8
  %43 = load i32, ptr %5, align 4
  %.not39 = icmp eq i32 %43, 0
  br i1 %.not39, label %44, label %72

44:                                               ; preds = %39
  call void @llvm.memcpy.p0.p0.i64(ptr align 1 %41, ptr nonnull align 1 %storemerge45, i64 %37, i1 false)
  %45 = load ptr, ptr %42, align 8
  %46 = getelementptr inbounds i8, ptr %45, i64 %37
  store i8 0, ptr %46, align 1
  br label %72

47:                                               ; preds = %32
  %48 = getelementptr inbounds i8, ptr %storemerge45, i64 %37
  %49 = call fastcc i64 @PS_Conv_ToFixed(ptr noundef nonnull %4, ptr noundef nonnull %48, i64 noundef 0)
  %50 = getelementptr inbounds nuw i8, ptr %13, i64 8
  store i64 %49, ptr %50, align 8
  br label %72

51:                                               ; preds = %32
  %52 = getelementptr inbounds i8, ptr %storemerge45, i64 %37
  %53 = call fastcc i64 @PS_Conv_ToInt(ptr noundef nonnull %4, ptr noundef nonnull %52)
  %54 = trunc i64 %53 to i32
  %55 = getelementptr inbounds nuw i8, ptr %13, i64 8
  store i32 %54, ptr %55, align 8
  br label %72

56:                                               ; preds = %32
  %57 = icmp eq i64 %37, 4
  br i1 %57, label %58, label %61

58:                                               ; preds = %56
  %59 = call i32 @strncmp(ptr noundef nonnull dereferenceable(1) %storemerge45, ptr noundef nonnull dereferenceable(5) @.str.75, i64 noundef 4) #21
  %.not38 = icmp eq i32 %59, 0
  %60 = zext i1 %.not38 to i8
  br label %61

61:                                               ; preds = %58, %56
  %62 = phi i8 [ 0, %56 ], [ %60, %58 ]
  %63 = getelementptr inbounds nuw i8, ptr %13, i64 8
  store i8 %62, ptr %63, align 8
  br label %72

64:                                               ; preds = %32
  %65 = load ptr, ptr %10, align 8
  %.not37 = icmp eq ptr %65, null
  br i1 %.not37, label %70, label %66

66:                                               ; preds = %64
  %67 = load ptr, ptr %11, align 8
  %68 = call i32 %65(ptr noundef nonnull %storemerge45, i64 noundef %37, ptr noundef %67) #20
  %69 = getelementptr inbounds nuw i8, ptr %13, i64 8
  store i32 %68, ptr %69, align 8
  br label %72

70:                                               ; preds = %64
  %71 = getelementptr inbounds nuw i8, ptr %13, i64 8
  store i32 0, ptr %71, align 8
  br label %72

72:                                               ; preds = %32, %47, %51, %61, %44, %39, %70, %66
  %indvars.iv.next = add nuw nsw i64 %indvars.iv, 1
  %exitcond.not = icmp eq i64 %indvars.iv.next, %wide.trip.count
  br i1 %exitcond.not, label %.loopexit, label %12, !llvm.loop !30

.loopexit.loopexit.split.loop.exit:               ; preds = %afm_stream_read_string.exit
  %73 = trunc nuw nsw i64 %indvars.iv to i32
  br label %.loopexit

.loopexit:                                        ; preds = %72, %.loopexit.loopexit.split.loop.exit, %afm_stream_read_string.exit.thread
  %.03347 = phi i32 [ %19, %afm_stream_read_string.exit.thread ], [ %73, %.loopexit.loopexit.split.loop.exit ], [ %2, %72 ]
  ret i32 %.03347
}